(dp0
S'c_d'
p1
S'a%3D37%26g%3DM.%26p%3D1'
p2
sS'sess_id'
p3
S'fi1tev35nergcqmqwyxckkwoowwus0kz'
p4
sS'c_userkey'
p5
S'2%3AxKF1d0agGiuSA13YUI3DN%2F%2Frt%2Fo%3D'
p6
sS'c_userid'
p7
S'18304917'
p8
sS'c_visitor'
p9
S'41fe26eb-dd8b-4093-9b1c-eaf7d7576ecc'
p10
sS'__cfduid'
p11
S'd08fc2d4a214a10042326c59bfacdd9c01471627600'
p12
s.